; Function Attrs: null_pointer_is_valid sspstrong uwtable
define void @conversation_set_dissector_from_frame_number(ptr noundef captures(none) %0, i32 noundef %1, ptr noundef %2) local_unnamed_addr #0 {
  %4 = getelementptr inbounds nuw i8, ptr %0, i64 48
  %5 = load ptr, ptr %4, align 8
  %.not = icmp eq ptr %5, null
  br i1 %.not, label %6, label %9

6:                                                ; preds = %3
  %7 = tail call ptr @wmem_file_scope()
  %8 = tail call noalias ptr @wmem_tree_new(ptr noundef %7)
  store ptr %8, ptr %4, align 8
  br label %9

9:                                                ; preds = %6, %3
  %10 = phi ptr [ %8, %6 ], [ %5, %3 ]
  tail call void @wmem_tree_insert32(ptr noundef %10, i32 noundef %1, ptr noundef %2)
  ret void
}